target datalayout = "e-m:e-p270:32:32-p271:32:32-p272:64:64-i64:64-i128:128-f80:128-n8:16:32:64-S128"
target triple = "x86_64-pc-linux-gnu"

%struct.nstime_t = type { i64, i32 }
%struct._packet_info = type { ptr, ptr, i32, i32, %struct.nstime_t, %struct.nstime_t, %struct.nstime_t, i8, ptr, ptr, ptr, ptr, %struct._address, %struct._address, %struct._address, %struct._address, %struct._address, %struct._address, i32, ptr, i8, [3 x i8], %struct.anon.1, i32, i32, i32, i32, ptr, i8, ptr, ptr, i16, i16, i32, i32, i16, i32, i32, ptr, ptr, ptr, i8, i8, i16, i16, i16, i32, i16, i16, ptr, ptr, ptr, ptr, ptr, i32, i32 }
%struct._address = type { i32, i32, ptr, ptr }
%struct.anon.1 = type { i8, [3 x i8] }
%struct._asn1_ctx_t = type { i32, i32, i8, ptr, ptr, ptr, ptr, ptr, %struct.anon.2, %struct.anon.5, %struct.anon.6, ptr }
%struct.anon.2 = type { i32, i8, i8, i8, ptr, ptr, i32, i32, ptr, ptr, ptr, %union.anon }
%union.anon = type { %struct.anon.3 }
%struct.anon.3 = type { ptr }
%struct.anon.5 = type { ptr, ptr, ptr }
%struct.anon.6 = type { i32, i8, ptr, i32, i32, ptr, ptr, ptr, %union.anon.7 }
%union.anon.7 = type { %struct.anon.8 }
%struct.anon.8 = type { ptr }

@ntlmssp_handle = internal global ptr null, align 8
@ldm_tree = internal global ptr null, align 8
@do_protocolop = internal global i8 0, align 1
@MessageID = internal global i32 -1, align 4
@ProtocolOp = internal global i32 -1, align 4
@.str.874 = private unnamed_addr constant [13 x i8] c"Unknown (%u)\00", align 1
@.str.875 = private unnamed_addr constant [8 x i8] c"%s(%u) \00", align 1
@.str.876 = private unnamed_addr constant [8 x i8] c" %s(%d)\00", align 1

; Function Attrs: null_pointer_is_valid sspstrong uwtable
define internal void @ldap_do_protocolop(ptr noundef %0) #0 {
  %2 = alloca ptr, align 8
  %3 = alloca ptr, align 8
  store ptr %0, ptr %2, align 8
  call void @llvm.lifetime.start.p0(i64 8, ptr %3) #16
  %4 = load i8, ptr @do_protocolop, align 1, !range !6, !noundef !7
  %5 = trunc i8 %4 to i1
  br i1 %5, label %6, label %21

6:                                                ; preds = %1
  %7 = load i32, ptr @ProtocolOp, align 4
  %8 = call ptr @val_to_str(i32 noundef %7, ptr noundef @ldap_ProtocolOp_choice_vals, ptr noundef @.str.874)
  store ptr %8, ptr %3, align 8
  %9 = load ptr, ptr %2, align 8
  %10 = getelementptr inbounds nuw %struct._packet_info, ptr %9, i32 0, i32 1
  %11 = load ptr, ptr %10, align 8
  %12 = load ptr, ptr %3, align 8
  %13 = load i32, ptr @MessageID, align 4
  call void (ptr, i32, ptr, ...) @col_append_fstr(ptr noundef %11, i32 noundef 25, ptr noundef @.str.875, ptr noundef %12, i32 noundef %13)
  %14 = load ptr, ptr @ldm_tree, align 8
  %15 = icmp ne ptr %14, null
  br i1 %15, label %16, label %20

16:                                               ; preds = %6
  %17 = load ptr, ptr @ldm_tree, align 8
  %18 = load ptr, ptr %3, align 8
  %19 = load i32, ptr @MessageID, align 4
  call void (ptr, ptr, ...) @proto_item_append_text(ptr noundef %17, ptr noundef @.str.876, ptr noundef %18, i32 noundef %19)
  br label %20

20:                                               ; preds = %16, %6
  store i8 0, ptr @do_protocolop, align 1
  br label %21

21:                                               ; preds = %20, %1
  call void @llvm.lifetime.end.p0(i64 8, ptr %3) #16
  ret void
}

; Function Attrs: null_pointer_is_valid sspstrong uwtable
define internal i32 @dissect_ldap_T_ntlmsspAuth(i1 noundef zeroext %0, ptr noundef %1, i32 noundef %2, ptr noundef %3, ptr noundef %4, i32 noundef %5) #0 {
  %7 = alloca i8, align 1
  %8 = alloca ptr, align 8
  %9 = alloca i32, align 4
  %10 = alloca ptr, align 8
  %11 = alloca ptr, align 8
  %12 = alloca i32, align 4
  %13 = zext i1 %0 to i8
  store i8 %13, ptr %7, align 1
  store ptr %1, ptr %8, align 8
  store i32 %2, ptr %9, align 4
  store ptr %3, ptr %10, align 8
  store ptr %4, ptr %11, align 8
  store i32 %5, ptr %12, align 4
  %14 = load ptr, ptr %10, align 8
  %15 = getelementptr inbounds nuw %struct._asn1_ctx_t, ptr %14, i32 0, i32 3
  %16 = load ptr, ptr %15, align 8
  call void @ldap_do_protocolop(ptr noundef %16)
  %17 = load ptr, ptr @ntlmssp_handle, align 8
  %18 = load ptr, ptr %8, align 8
  %19 = load ptr, ptr %10, align 8
  %20 = getelementptr inbounds nuw %struct._asn1_ctx_t, ptr %19, i32 0, i32 3
  %21 = load ptr, ptr %20, align 8
  %22 = load ptr, ptr %11, align 8
  %23 = call i32 @call_dissector(ptr noundef %17, ptr noundef %18, ptr noundef %21, ptr noundef %22)
  %24 = load ptr, ptr %8, align 8
  %25 = load i32, ptr %9, align 4
  %26 = call i32 @tvb_reported_length_remaining(ptr noundef %24, i32 noundef %25)
  %27 = load i32, ptr %9, align 4
  %28 = add i32 %27, %26
  store i32 %28, ptr %9, align 4
  %29 = load i32, ptr %9, align 4
  ret i32 %29
}